; Function Attrs: mustprogress uwtable
define internal fastcc void @"_ZNO8pybind116detail15argument_loaderIJEE4callINS_10memoryviewENS0_9void_typeERZ22test_submodule_pytypesRNS_7module_EE4$_89EENSt9enable_ifIXntsr3std7is_voidIT_EE5valueESB_E4typeEOT1_"(ptr dead_on_unwind noalias writable align 8 %0) unnamed_addr #1 align 2 personality ptr @__gxx_personality_v0 {
  %2 = alloca %"class.pybind11::detail::any_container", align 8
  %3 = alloca %"class.pybind11::detail::any_container", align 8
  call void @llvm.lifetime.start.p0(i64 24, ptr nonnull %2), !noalias !4786
  call void @llvm.lifetime.start.p0(i64 24, ptr nonnull %3), !noalias !4786
  call void @llvm.memset.p0.i64(ptr noundef nonnull align 8 dereferenceable(24) %2, i8 0, i64 24, i1 false), !noalias !4789
  call void @llvm.memset.p0.i64(ptr noundef nonnull align 8 dereferenceable(24) %3, i8 0, i64 24, i1 false), !noalias !4789
  invoke void @_ZN8pybind1110memoryview11from_bufferEPvlPKcNS_6detail13any_containerIlEES6_b(ptr dead_on_unwind writable sret(%"class.pybind11::memoryview") align 8 %0, ptr noundef null, i64 noundef 1, ptr noundef nonnull @.str.406, ptr noundef nonnull %2, ptr noundef nonnull %3, i1 noundef zeroext false)
          to label %4 unwind label %9

4:                                                ; preds = %1
  %5 = load ptr, ptr %3, align 8, !noalias !4789
  %.not.i.i.i.i.i.i = icmp eq ptr %5, null
  br i1 %.not.i.i.i.i.i.i, label %_ZN8pybind116detail13any_containerIlED2Ev.exit.i.i, label %6

6:                                                ; preds = %4
  call void @_ZdlPv(ptr noundef nonnull %5) #29
  br label %_ZN8pybind116detail13any_containerIlED2Ev.exit.i.i

_ZN8pybind116detail13any_containerIlED2Ev.exit.i.i: ; preds = %6, %4
  %7 = load ptr, ptr %2, align 8, !noalias !4789
  %.not.i.i.i.i1.i.i = icmp eq ptr %7, null
  br i1 %.not.i.i.i.i1.i.i, label %"_ZNO8pybind116detail15argument_loaderIJEE9call_implINS_10memoryviewERZ22test_submodule_pytypesRNS_7module_EE4$_89TpTnmJENS0_9void_typeEEET_OT0_St16integer_sequenceImJXspT1_EEEOT2_.exit", label %8

8:                                                ; preds = %_ZN8pybind116detail13any_containerIlED2Ev.exit.i.i
  call void @_ZdlPv(ptr noundef nonnull %7) #29
  br label %"_ZNO8pybind116detail15argument_loaderIJEE9call_implINS_10memoryviewERZ22test_submodule_pytypesRNS_7module_EE4$_89TpTnmJENS0_9void_typeEEET_OT0_St16integer_sequenceImJXspT1_EEEOT2_.exit"

9:                                                ; preds = %1
  %10 = landingpad { ptr, i32 }
          cleanup
  %11 = load ptr, ptr %3, align 8, !noalias !4789
  %.not.i.i.i.i3.i.i = icmp eq ptr %11, null
  br i1 %.not.i.i.i.i3.i.i, label %_ZN8pybind116detail13any_containerIlED2Ev.exit4.i.i, label %12

12:                                               ; preds = %9
  call void @_ZdlPv(ptr noundef nonnull %11) #29
  br label %_ZN8pybind116detail13any_containerIlED2Ev.exit4.i.i

_ZN8pybind116detail13any_containerIlED2Ev.exit4.i.i: ; preds = %12, %9
  %13 = load ptr, ptr %2, align 8, !noalias !4789
  %.not.i.i.i.i5.i.i = icmp eq ptr %13, null
  br i1 %.not.i.i.i.i5.i.i, label %_ZN8pybind116detail13any_containerIlED2Ev.exit6.i.i, label %14

14:                                               ; preds = %_ZN8pybind116detail13any_containerIlED2Ev.exit4.i.i
  call void @_ZdlPv(ptr noundef nonnull %13) #29
  br label %_ZN8pybind116detail13any_containerIlED2Ev.exit6.i.i

_ZN8pybind116detail13any_containerIlED2Ev.exit6.i.i: ; preds = %14, %_ZN8pybind116detail13any_containerIlED2Ev.exit4.i.i
  resume { ptr, i32 } %10

"_ZNO8pybind116detail15argument_loaderIJEE9call_implINS_10memoryviewERZ22test_submodule_pytypesRNS_7module_EE4$_89TpTnmJENS0_9void_typeEEET_OT0_St16integer_sequenceImJXspT1_EEEOT2_.exit": ; preds = %_ZN8pybind116detail13any_containerIlED2Ev.exit.i.i, %8
  call void @llvm.lifetime.end.p0(i64 24, ptr nonnull %2), !noalias !4786
  call void @llvm.lifetime.end.p0(i64 24, ptr nonnull %3), !noalias !4786
  ret void
}